target datalayout = "e-m:e-p270:32:32-p271:32:32-p272:64:64-i64:64-i128:128-f80:128-n8:16:32:64-S128"
target triple = "x86_64-pc-linux-gnu"

%struct.evp_cipher_ctx_st = type { ptr, ptr, ptr, i32, i32, i32, [16 x i8], [16 x i8], [32 x i8], i32, i32, i32, i32, [32 x i8] }
%struct.evp_cipher_st = type { i32, i32, i32, i32, i32, i32, ptr, ptr, ptr, ptr, ptr }

@.str = private unnamed_addr constant [126 x i8] c"generated/home/dtcxzyw/WorkSpace/Projects/compilers/llvm-opt-benchmark/bench/libquic/libquic/boringssl/crypto/cipher/cipher.c\00", align 1

; Function Attrs: nounwind uwtable
define hidden i32 @EVP_CIPHER_CTX_cleanup(ptr noundef %0) #0 {
  %2 = alloca ptr, align 8
  store ptr %0, ptr %2, align 8, !tbaa !10
  %3 = load ptr, ptr %2, align 8, !tbaa !10
  %4 = getelementptr inbounds nuw %struct.evp_cipher_ctx_st, ptr %3, i32 0, i32 0
  %5 = load ptr, ptr %4, align 8, !tbaa !13
  %6 = icmp ne ptr %5, null
  br i1 %6, label %7, label %31

7:                                                ; preds = %1
  %8 = load ptr, ptr %2, align 8, !tbaa !10
  %9 = getelementptr inbounds nuw %struct.evp_cipher_ctx_st, ptr %8, i32 0, i32 0
  %10 = load ptr, ptr %9, align 8, !tbaa !13
  %11 = getelementptr inbounds nuw %struct.evp_cipher_st, ptr %10, i32 0, i32 9
  %12 = load ptr, ptr %11, align 8, !tbaa !16
  %13 = icmp ne ptr %12, null
  br i1 %13, label %14, label %21

14:                                               ; preds = %7
  %15 = load ptr, ptr %2, align 8, !tbaa !10
  %16 = getelementptr inbounds nuw %struct.evp_cipher_ctx_st, ptr %15, i32 0, i32 0
  %17 = load ptr, ptr %16, align 8, !tbaa !13
  %18 = getelementptr inbounds nuw %struct.evp_cipher_st, ptr %17, i32 0, i32 9
  %19 = load ptr, ptr %18, align 8, !tbaa !16
  %20 = load ptr, ptr %2, align 8, !tbaa !10
  call void %19(ptr noundef %20)
  br label %21

21:                                               ; preds = %14, %7
  %22 = load ptr, ptr %2, align 8, !tbaa !10
  %23 = getelementptr inbounds nuw %struct.evp_cipher_ctx_st, ptr %22, i32 0, i32 2
  %24 = load ptr, ptr %23, align 8, !tbaa !18
  %25 = load ptr, ptr %2, align 8, !tbaa !10
  %26 = getelementptr inbounds nuw %struct.evp_cipher_ctx_st, ptr %25, i32 0, i32 0
  %27 = load ptr, ptr %26, align 8, !tbaa !13
  %28 = getelementptr inbounds nuw %struct.evp_cipher_st, ptr %27, i32 0, i32 4
  %29 = load i32, ptr %28, align 8, !tbaa !19
  %30 = zext i32 %29 to i64
  call void @OPENSSL_cleanse(ptr noundef %24, i64 noundef %30)
  br label %31

31:                                               ; preds = %21, %1
  %32 = load ptr, ptr %2, align 8, !tbaa !10
  %33 = getelementptr inbounds nuw %struct.evp_cipher_ctx_st, ptr %32, i32 0, i32 2
  %34 = load ptr, ptr %33, align 8, !tbaa !18
  call void @free(ptr noundef %34) #7
  %35 = load ptr, ptr %2, align 8, !tbaa !10
  call void @llvm.memset.p0.i64(ptr align 8 %35, i8 0, i64 152, i1 false)
  ret i32 1
}

; Function Attrs: nounwind uwtable
define hidden i32 @EVP_CIPHER_CTX_copy(ptr noundef %0, ptr noundef %1) #0 {
  %3 = alloca i32, align 4
  %4 = alloca ptr, align 8
  %5 = alloca ptr, align 8
  store ptr %0, ptr %4, align 8, !tbaa !10
  store ptr %1, ptr %5, align 8, !tbaa !10
  %6 = load ptr, ptr %5, align 8, !tbaa !10
  %7 = icmp eq ptr %6, null
  br i1 %7, label %13, label %8

8:                                                ; preds = %2
  %9 = load ptr, ptr %5, align 8, !tbaa !10
  %10 = getelementptr inbounds nuw %struct.evp_cipher_ctx_st, ptr %9, i32 0, i32 0
  %11 = load ptr, ptr %10, align 8, !tbaa !13
  %12 = icmp eq ptr %11, null
  br i1 %12, label %13, label %14

13:                                               ; preds = %8, %2
  call void @ERR_put_error(i32 noundef 30, i32 noundef 0, i32 noundef 108, ptr noundef @.str, i32 noundef 124)
  store i32 0, ptr %3, align 4
  br label %76

14:                                               ; preds = %8
  %15 = load ptr, ptr %4, align 8, !tbaa !10
  %16 = call i32 @EVP_CIPHER_CTX_cleanup(ptr noundef %15)
  %17 = load ptr, ptr %4, align 8, !tbaa !10
  %18 = load ptr, ptr %5, align 8, !tbaa !10
  call void @llvm.memcpy.p0.p0.i64(ptr align 8 %17, ptr align 8 %18, i64 152, i1 false)
  %19 = load ptr, ptr %5, align 8, !tbaa !10
  %20 = getelementptr inbounds nuw %struct.evp_cipher_ctx_st, ptr %19, i32 0, i32 2
  %21 = load ptr, ptr %20, align 8, !tbaa !18
  %22 = icmp ne ptr %21, null
  br i1 %22, label %23, label %58

23:                                               ; preds = %14
  %24 = load ptr, ptr %5, align 8, !tbaa !10
  %25 = getelementptr inbounds nuw %struct.evp_cipher_ctx_st, ptr %24, i32 0, i32 0
  %26 = load ptr, ptr %25, align 8, !tbaa !13
  %27 = getelementptr inbounds nuw %struct.evp_cipher_st, ptr %26, i32 0, i32 4
  %28 = load i32, ptr %27, align 8, !tbaa !19
  %29 = icmp ne i32 %28, 0
  br i1 %29, label %30, label %58

30:                                               ; preds = %23
  %31 = load ptr, ptr %5, align 8, !tbaa !10
  %32 = getelementptr inbounds nuw %struct.evp_cipher_ctx_st, ptr %31, i32 0, i32 0
  %33 = load ptr, ptr %32, align 8, !tbaa !13
  %34 = getelementptr inbounds nuw %struct.evp_cipher_st, ptr %33, i32 0, i32 4
  %35 = load i32, ptr %34, align 8, !tbaa !19
  %36 = zext i32 %35 to i64
  %37 = call noalias ptr @malloc(i64 noundef %36) #8
  %38 = load ptr, ptr %4, align 8, !tbaa !10
  %39 = getelementptr inbounds nuw %struct.evp_cipher_ctx_st, ptr %38, i32 0, i32 2
  store ptr %37, ptr %39, align 8, !tbaa !18
  %40 = load ptr, ptr %4, align 8, !tbaa !10
  %41 = getelementptr inbounds nuw %struct.evp_cipher_ctx_st, ptr %40, i32 0, i32 2
  %42 = load ptr, ptr %41, align 8, !tbaa !18
  %43 = icmp ne ptr %42, null
  br i1 %43, label %45, label %44

44:                                               ; preds = %30
  call void @ERR_put_error(i32 noundef 30, i32 noundef 0, i32 noundef 65, ptr noundef @.str, i32 noundef 134)
  store i32 0, ptr %3, align 4
  br label %76

45:                                               ; preds = %30
  %46 = load ptr, ptr %4, align 8, !tbaa !10
  %47 = getelementptr inbounds nuw %struct.evp_cipher_ctx_st, ptr %46, i32 0, i32 2
  %48 = load ptr, ptr %47, align 8, !tbaa !18
  %49 = load ptr, ptr %5, align 8, !tbaa !10
  %50 = getelementptr inbounds nuw %struct.evp_cipher_ctx_st, ptr %49, i32 0, i32 2
  %51 = load ptr, ptr %50, align 8, !tbaa !18
  %52 = load ptr, ptr %5, align 8, !tbaa !10
  %53 = getelementptr inbounds nuw %struct.evp_cipher_ctx_st, ptr %52, i32 0, i32 0
  %54 = load ptr, ptr %53, align 8, !tbaa !13
  %55 = getelementptr inbounds nuw %struct.evp_cipher_st, ptr %54, i32 0, i32 4
  %56 = load i32, ptr %55, align 8, !tbaa !19
  %57 = zext i32 %56 to i64
  call void @llvm.memcpy.p0.p0.i64(ptr align 1 %48, ptr align 1 %51, i64 %57, i1 false)
  br label %58

58:                                               ; preds = %45, %23, %14
  %59 = load ptr, ptr %5, align 8, !tbaa !10
  %60 = getelementptr inbounds nuw %struct.evp_cipher_ctx_st, ptr %59, i32 0, i32 0
  %61 = load ptr, ptr %60, align 8, !tbaa !13
  %62 = getelementptr inbounds nuw %struct.evp_cipher_st, ptr %61, i32 0, i32 5
  %63 = load i32, ptr %62, align 4, !tbaa !20
  %64 = and i32 %63, 4096
  %65 = icmp ne i32 %64, 0
  br i1 %65, label %66, label %75

66:                                               ; preds = %58
  %67 = load ptr, ptr %5, align 8, !tbaa !10
  %68 = getelementptr inbounds nuw %struct.evp_cipher_ctx_st, ptr %67, i32 0, i32 0
  %69 = load ptr, ptr %68, align 8, !tbaa !13
  %70 = getelementptr inbounds nuw %struct.evp_cipher_st, ptr %69, i32 0, i32 10
  %71 = load ptr, ptr %70, align 8, !tbaa !21
  %72 = load ptr, ptr %5, align 8, !tbaa !10
  %73 = load ptr, ptr %4, align 8, !tbaa !10
  %74 = call i32 %71(ptr noundef %72, i32 noundef 8, i32 noundef 0, ptr noundef %73)
  store i32 %74, ptr %3, align 4
  br label %76

75:                                               ; preds = %58
  store i32 1, ptr %3, align 4
  br label %76

76:                                               ; preds = %75, %66, %44, %13
  %77 = load i32, ptr %3, align 4
  ret i32 %77
}