; Function Attrs: nounwind uwtable
define hidden i32 @EVP_CIPHER_CTX_copy(ptr noundef %0, ptr noundef %1) local_unnamed_addr #0 {
  %3 = icmp eq ptr %1, null
  br i1 %3, label %7, label %4

4:                                                ; preds = %2
  %5 = load ptr, ptr %1, align 8, !tbaa !6
  %6 = icmp eq ptr %5, null
  br i1 %6, label %7, label %8

7:                                                ; preds = %4, %2
  tail call void @ERR_put_error(i32 noundef 30, i32 noundef 0, i32 noundef 108, ptr noundef nonnull @.str, i32 noundef 124) #14
  br label %42

8:                                                ; preds = %4
  %9 = load ptr, ptr %0, align 8, !tbaa !6
  %.not.i = icmp eq ptr %9, null
  br i1 %.not.i, label %EVP_CIPHER_CTX_cleanup.exit, label %10

10:                                               ; preds = %8
  %11 = getelementptr inbounds nuw i8, ptr %9, i64 48
  %12 = load ptr, ptr %11, align 8, !tbaa !13
  %.not9.i = icmp eq ptr %12, null
  br i1 %.not9.i, label %14, label %13

13:                                               ; preds = %10
  tail call void %12(ptr noundef nonnull %0) #14
  %.pre.i = load ptr, ptr %0, align 8, !tbaa !6
  br label %14

14:                                               ; preds = %13, %10
  %15 = phi ptr [ %.pre.i, %13 ], [ %9, %10 ]
  %16 = getelementptr inbounds nuw i8, ptr %0, i64 16
  %17 = load ptr, ptr %16, align 8, !tbaa !15
  %18 = getelementptr inbounds nuw i8, ptr %15, i64 16
  %19 = load i32, ptr %18, align 8, !tbaa !16
  %20 = zext i32 %19 to i64
  tail call void @OPENSSL_cleanse(ptr noundef %17, i64 noundef %20) #14
  br label %EVP_CIPHER_CTX_cleanup.exit

EVP_CIPHER_CTX_cleanup.exit:                      ; preds = %8, %14
  %21 = getelementptr inbounds nuw i8, ptr %0, i64 16
  %22 = load ptr, ptr %21, align 8, !tbaa !15
  tail call void @free(ptr noundef %22) #14
  tail call void @llvm.memset.p0.i64(ptr noundef nonnull align 8 dereferenceable(152) %0, i8 0, i64 152, i1 false)
  tail call void @llvm.memcpy.p0.p0.i64(ptr noundef nonnull align 8 dereferenceable(152) %0, ptr noundef nonnull align 8 dereferenceable(152) %1, i64 152, i1 false)
  %23 = getelementptr inbounds nuw i8, ptr %1, i64 16
  %24 = load ptr, ptr %23, align 8, !tbaa !15
  %.not = icmp eq ptr %24, null
  %.pre = load ptr, ptr %1, align 8, !tbaa !6
  br i1 %.not, label %34, label %25

25:                                               ; preds = %EVP_CIPHER_CTX_cleanup.exit
  %26 = getelementptr inbounds nuw i8, ptr %.pre, i64 16
  %27 = load i32, ptr %26, align 8, !tbaa !16
  %.not20 = icmp eq i32 %27, 0
  br i1 %.not20, label %34, label %28

28:                                               ; preds = %25
  %29 = zext i32 %27 to i64
  %30 = tail call noalias ptr @malloc(i64 noundef %29) #15
  store ptr %30, ptr %21, align 8, !tbaa !15
  %.not21 = icmp eq ptr %30, null
  br i1 %.not21, label %31, label %32

31:                                               ; preds = %28
  tail call void @ERR_put_error(i32 noundef 30, i32 noundef 0, i32 noundef 65, ptr noundef nonnull @.str, i32 noundef 134) #14
  br label %42

32:                                               ; preds = %28
  %33 = load ptr, ptr %23, align 8, !tbaa !15
  tail call void @llvm.memcpy.p0.p0.i64(ptr nonnull align 1 %30, ptr align 1 %33, i64 %29, i1 false)
  br label %34

34:                                               ; preds = %32, %25, %EVP_CIPHER_CTX_cleanup.exit
  %35 = getelementptr inbounds nuw i8, ptr %.pre, i64 20
  %36 = load i32, ptr %35, align 4, !tbaa !17
  %37 = and i32 %36, 4096
  %.not22 = icmp eq i32 %37, 0
  br i1 %.not22, label %42, label %38

38:                                               ; preds = %34
  %39 = getelementptr inbounds nuw i8, ptr %.pre, i64 56
  %40 = load ptr, ptr %39, align 8, !tbaa !18
  %41 = tail call i32 %40(ptr noundef nonnull %1, i32 noundef 8, i32 noundef 0, ptr noundef nonnull %0) #14
  br label %42

42:                                               ; preds = %34, %38, %31, %7
  %.0 = phi i32 [ 0, %7 ], [ %41, %38 ], [ 0, %31 ], [ 1, %34 ]
  ret i32 %.0
}